ccopy_reg
_reconstructor
p0
(cgoogle.oauth2.credentials
Credentials
p1
c__builtin__
object
p2
Ntp3
Rp4
(dp5
S'_token_uri'
p6
Vhttps://oauth2.googleapis.com/token
p7
sS'_scopes'
p8
(lp9
S'https://www.googleapis.com/auth/drive'
p10
asS'_id_token'
p11
NsS'token'
p12
Vya29.Gl39BlMlPz6PorE7WcjuirnlgbHAKuTS96ECnpTEPAhFQmQU7ZY6t_9Y10CbLddPRhbT4k8rUaZzyx5UkaZimgWWy71Up-PZ4IPZ3pICsLh7AUSzARm0S9AkTs5oVgk
p13
sS'_refresh_token'
p14
V1/Kqa__sXSq_5oIJ16ArHSbwPE8v_hbfMqvPw9lkA5_88
p15
sS'_client_secret'
p16
Vb5Bp_3TjLi_Hivv5pquWPti0
p17
sS'_client_id'
p18
V502767352111-h1mtltinfcs44bq6qthjq1vratqboh4f.apps.googleusercontent.com
p19
sS'expiry'
p20
cdatetime
datetime
p21
(S'\x07\xe3\x05\x02\x105\x1b\x07B\xc0'
p22
tp23
Rp24
sb.